; Function Attrs: nounwind uwtable
define hidden range(i32 -2147483647, -2147483648) i32 @uv__io_check_fd(ptr noundef readonly captures(none) %0, i32 noundef %1) local_unnamed_addr #0 {
  %3 = alloca %struct.epoll_event, align 4
  call void @llvm.lifetime.start.p0(i64 12, ptr nonnull %3) #17
  %4 = getelementptr inbounds nuw i8, ptr %3, i64 8
  store i32 0, ptr %4, align 4
  store i32 1, ptr %3, align 4
  %5 = getelementptr inbounds nuw i8, ptr %3, i64 4
  store i32 -1, ptr %5, align 4
  %6 = getelementptr inbounds nuw i8, ptr %0, i64 64
  %7 = load i32, ptr %6, align 8
  %8 = call i32 @epoll_ctl(i32 noundef %7, i32 noundef 1, i32 noundef %1, ptr noundef nonnull %3) #17
  %.not = icmp eq i32 %8, 0
  br i1 %.not, label %.thread, label %9

9:                                                ; preds = %2
  %10 = tail call ptr @__errno_location() #19
  %11 = load i32, ptr %10, align 4
  %12 = sub nsw i32 0, %11
  switch i32 %11, label %16 [
    i32 17, label %.thread
    i32 0, label %.thread
  ]

.thread:                                          ; preds = %9, %9, %2
  %13 = load i32, ptr %6, align 8
  %14 = call i32 @epoll_ctl(i32 noundef %13, i32 noundef 2, i32 noundef %1, ptr noundef nonnull %3) #17
  %.not7 = icmp eq i32 %14, 0
  br i1 %.not7, label %16, label %15

15:                                               ; preds = %.thread
  call void @abort() #20
  unreachable

16:                                               ; preds = %9, %.thread
  %.09 = phi i32 [ 0, %.thread ], [ %12, %9 ]
  call void @llvm.lifetime.end.p0(i64 12, ptr nonnull %3) #17
  ret i32 %.09
}